; Function Attrs: mustprogress nounwind uwtable
define internal fastcc void @_ZN12_GLOBAL__N_129CounterCoverageMappingBuilder14VisitBreakStmtEPKN5clang9BreakStmtE(ptr noundef nonnull align 8 dereferenceable(2376) %0, ptr noundef %1) unnamed_addr #0 align 2 {
  %3 = load i8, ptr getelementptr inbounds (i8, ptr @_ZN4llvm24EnableSingleByteCoverageE, i64 128), align 8
  %4 = trunc i8 %3 to i1
  br i1 %4, label %19, label %5

5:                                                ; preds = %2
  %6 = getelementptr inbounds nuw i8, ptr %0, i64 2232
  %.val.i.i = load ptr, ptr %6, align 8
  %7 = tail call noundef i64 @_ZNK4llvm15SmallVectorBaseIjE4sizeEv(ptr noundef nonnull align 8 dereferenceable(16) %6) #22
  %8 = getelementptr inbounds %"struct.(anonymous namespace)::CounterCoverageMappingBuilder::BreakContinue", ptr %.val.i.i, i64 %7
  %9 = getelementptr inbounds i8, ptr %8, i64 -16
  %.sroa.01.0.copyload = load i64, ptr %9, align 4
  %10 = getelementptr inbounds nuw i8, ptr %0, i64 1976
  %.val.i.i.i = load ptr, ptr %10, align 8
  %11 = tail call noundef i64 @_ZNK4llvm15SmallVectorBaseIjE4sizeEv(ptr noundef nonnull align 8 dereferenceable(16) %10) #22
  %12 = getelementptr inbounds %"class.(anonymous namespace)::SourceMappingRegion", ptr %.val.i.i.i, i64 %11
  %13 = getelementptr inbounds i8, ptr %12, i64 -52
  %.sroa.0.0.copyload = load i64, ptr %13, align 4
  %14 = getelementptr inbounds nuw i8, ptr %0, i64 2168
  %15 = tail call i64 @_ZN4llvm8coverage24CounterExpressionBuilder3addENS0_7CounterES2_b(ptr noundef nonnull align 8 dereferenceable(48) %14, i64 %.sroa.01.0.copyload, i64 %.sroa.0.0.copyload, i1 noundef zeroext true) #22
  %.val.i.i4 = load ptr, ptr %6, align 8
  %16 = tail call noundef i64 @_ZNK4llvm15SmallVectorBaseIjE4sizeEv(ptr noundef nonnull align 8 dereferenceable(16) %6) #22
  %17 = getelementptr inbounds %"struct.(anonymous namespace)::CounterCoverageMappingBuilder::BreakContinue", ptr %.val.i.i4, i64 %16
  %18 = getelementptr inbounds i8, ptr %17, i64 -16
  store i64 %15, ptr %18, align 4
  br label %19

19:                                               ; preds = %5, %2
  tail call fastcc void @_ZN12_GLOBAL__N_129CounterCoverageMappingBuilder15terminateRegionEPKN5clang4StmtE(ptr noundef nonnull align 8 dereferenceable(2376) %0, ptr noundef %1)
  ret void
}